target datalayout = "e-m:e-p270:32:32-p271:32:32-p272:64:64-i64:64-i128:128-f80:128-n8:16:32:64-S128"
target triple = "x86_64-pc-linux-gnu"

%struct.AVFilterContext = type { ptr, ptr, ptr, ptr, ptr, i32, ptr, ptr, i32, ptr, ptr, i32, i32, ptr, ptr, ptr, ptr, i32, ptr, i32, i32 }
%struct.PreMultiplyContext = type { ptr, [4 x i32], [4 x i32], [4 x i32], i32, i32, i32, i32, i32, i32, i32, i32, %struct.FFFrameSync, [4 x ptr] }
%struct.FFFrameSync = type { ptr, ptr, i32, %struct.AVRational, i64, ptr, ptr, i32, i32, i8, i8, ptr, i32, i32, i32, i32 }
%struct.AVRational = type { i32, i32 }

; Function Attrs: inlinehint nounwind uwtable
define internal void @ff_outlink_set_status(ptr noundef %0, i32 noundef %1, i64 noundef %2) #3 {
  %4 = alloca ptr, align 8
  %5 = alloca i32, align 4
  %6 = alloca i64, align 8
  store ptr %0, ptr %4, align 8, !tbaa !44
  store i32 %1, ptr %5, align 4, !tbaa !37
  store i64 %2, ptr %6, align 8, !tbaa !50
  %7 = load ptr, ptr %4, align 8, !tbaa !44
  %8 = load i32, ptr %5, align 4, !tbaa !37
  %9 = load i64, ptr %6, align 8, !tbaa !50
  call void @ff_avfilter_link_set_in_status(ptr noundef %7, i32 noundef %8, i64 noundef %9)
  ret void
}

; Function Attrs: nounwind uwtable
define internal i32 @activate(ptr noundef %0) #1 {
  %2 = alloca i32, align 4
  %3 = alloca ptr, align 8
  %4 = alloca ptr, align 8
  %5 = alloca ptr, align 8
  %6 = alloca ptr, align 8
  %7 = alloca i32, align 4
  %8 = alloca i32, align 4
  %9 = alloca i64, align 8
  %10 = alloca i32, align 4
  %11 = alloca i32, align 4
  %12 = alloca i32, align 4
  store ptr %0, ptr %3, align 8, !tbaa !4
  call void @llvm.lifetime.start.p0(i64 8, ptr %4) #11
  %13 = load ptr, ptr %3, align 8, !tbaa !4
  %14 = getelementptr inbounds nuw %struct.AVFilterContext, ptr %13, i32 0, i32 9
  %15 = load ptr, ptr %14, align 8, !tbaa !9
  store ptr %15, ptr %4, align 8, !tbaa !22
  %16 = load ptr, ptr %4, align 8, !tbaa !22
  %17 = getelementptr inbounds nuw %struct.PreMultiplyContext, ptr %16, i32 0, i32 7
  %18 = load i32, ptr %17, align 4, !tbaa !38
  %19 = icmp ne i32 %18, 0
  br i1 %19, label %20, label %117

20:                                               ; preds = %1
  call void @llvm.lifetime.start.p0(i64 8, ptr %5) #11
  store ptr null, ptr %5, align 8, !tbaa !41
  call void @llvm.lifetime.start.p0(i64 8, ptr %6) #11
  store ptr null, ptr %6, align 8, !tbaa !41
  call void @llvm.lifetime.start.p0(i64 4, ptr %7) #11
  call void @llvm.lifetime.start.p0(i64 4, ptr %8) #11
  call void @llvm.lifetime.start.p0(i64 8, ptr %9) #11
  br label %21

21:                                               ; preds = %20
  call void @llvm.lifetime.start.p0(i64 4, ptr %10) #11
  %22 = load ptr, ptr %3, align 8, !tbaa !4
  %23 = getelementptr inbounds nuw %struct.AVFilterContext, ptr %22, i32 0, i32 7
  %24 = load ptr, ptr %23, align 8, !tbaa !43
  %25 = getelementptr inbounds ptr, ptr %24, i64 0
  %26 = load ptr, ptr %25, align 8, !tbaa !44
  %27 = call i32 @ff_outlink_get_status(ptr noundef %26)
  store i32 %27, ptr %10, align 4, !tbaa !37
  %28 = load i32, ptr %10, align 4, !tbaa !37
  %29 = icmp ne i32 %28, 0
  br i1 %29, label %30, label %50

30:                                               ; preds = %21
  call void @llvm.lifetime.start.p0(i64 4, ptr %11) #11
  store i32 0, ptr %11, align 4, !tbaa !37
  br label %31

31:                                               ; preds = %46, %30
  %32 = load i32, ptr %11, align 4, !tbaa !37
  %33 = load ptr, ptr %3, align 8, !tbaa !4
  %34 = getelementptr inbounds nuw %struct.AVFilterContext, ptr %33, i32 0, i32 5
  %35 = load i32, ptr %34, align 8, !tbaa !46
  %36 = icmp ult i32 %32, %35
  br i1 %36, label %37, label %49

37:                                               ; preds = %31
  %38 = load ptr, ptr %3, align 8, !tbaa !4
  %39 = getelementptr inbounds nuw %struct.AVFilterContext, ptr %38, i32 0, i32 4
  %40 = load ptr, ptr %39, align 8, !tbaa !47
  %41 = load i32, ptr %11, align 4, !tbaa !37
  %42 = zext i32 %41 to i64
  %43 = getelementptr inbounds nuw ptr, ptr %40, i64 %42
  %44 = load ptr, ptr %43, align 8, !tbaa !44
  %45 = load i32, ptr %10, align 4, !tbaa !37
  call void @ff_inlink_set_status(ptr noundef %44, i32 noundef %45)
  br label %46

46:                                               ; preds = %37
  %47 = load i32, ptr %11, align 4, !tbaa !37
  %48 = add i32 %47, 1
  store i32 %48, ptr %11, align 4, !tbaa !37
  br label %31, !llvm.loop !48

49:                                               ; preds = %31
  store i32 0, ptr %2, align 4
  store i32 1, ptr %12, align 4
  call void @llvm.lifetime.end.p0(i64 4, ptr %11) #11
  br label %51

50:                                               ; preds = %21
  store i32 0, ptr %12, align 4
  br label %51

51:                                               ; preds = %50, %49
  call void @llvm.lifetime.end.p0(i64 4, ptr %10) #11
  %52 = load i32, ptr %12, align 4
  switch i32 %52, label %116 [
    i32 0, label %53
  ]

53:                                               ; preds = %51
  br label %54

54:                                               ; preds = %53
  br label %55

55:                                               ; preds = %54
  %56 = load ptr, ptr %3, align 8, !tbaa !4
  %57 = getelementptr inbounds nuw %struct.AVFilterContext, ptr %56, i32 0, i32 4
  %58 = load ptr, ptr %57, align 8, !tbaa !47
  %59 = getelementptr inbounds ptr, ptr %58, i64 0
  %60 = load ptr, ptr %59, align 8, !tbaa !44
  %61 = call i32 @ff_inlink_consume_frame(ptr noundef %60, ptr noundef %5)
  store i32 %61, ptr %7, align 4, !tbaa !37
  %62 = icmp sgt i32 %61, 0
  br i1 %62, label %63, label %80

63:                                               ; preds = %55
  %64 = load ptr, ptr %3, align 8, !tbaa !4
  %65 = load ptr, ptr %5, align 8, !tbaa !41
  %66 = load ptr, ptr %5, align 8, !tbaa !41
  %67 = call i32 @filter_frame(ptr noundef %64, ptr noundef %6, ptr noundef %65, ptr noundef %66)
  store i32 %67, ptr %7, align 4, !tbaa !37
  call void @av_frame_free(ptr noundef %5)
  %68 = load i32, ptr %7, align 4, !tbaa !37
  %69 = icmp slt i32 %68, 0
  br i1 %69, label %70, label %72

70:                                               ; preds = %63
  %71 = load i32, ptr %7, align 4, !tbaa !37
  store i32 %71, ptr %2, align 4
  store i32 1, ptr %12, align 4
  br label %116

72:                                               ; preds = %63
  %73 = load ptr, ptr %3, align 8, !tbaa !4
  %74 = getelementptr inbounds nuw %struct.AVFilterContext, ptr %73, i32 0, i32 7
  %75 = load ptr, ptr %74, align 8, !tbaa !43
  %76 = getelementptr inbounds ptr, ptr %75, i64 0
  %77 = load ptr, ptr %76, align 8, !tbaa !44
  %78 = load ptr, ptr %6, align 8, !tbaa !41
  %79 = call i32 @ff_filter_frame(ptr noundef %77, ptr noundef %78)
  store i32 %79, ptr %7, align 4, !tbaa !37
  br label %80

80:                                               ; preds = %72, %55
  %81 = load i32, ptr %7, align 4, !tbaa !37
  %82 = icmp slt i32 %81, 0
  br i1 %82, label %83, label %85

83:                                               ; preds = %80
  %84 = load i32, ptr %7, align 4, !tbaa !37
  store i32 %84, ptr %2, align 4
  store i32 1, ptr %12, align 4
  br label %116

85:                                               ; preds = %80
  %86 = load ptr, ptr %3, align 8, !tbaa !4
  %87 = getelementptr inbounds nuw %struct.AVFilterContext, ptr %86, i32 0, i32 4
  %88 = load ptr, ptr %87, align 8, !tbaa !47
  %89 = getelementptr inbounds ptr, ptr %88, i64 0
  %90 = load ptr, ptr %89, align 8, !tbaa !44
  %91 = call i32 @ff_inlink_acknowledge_status(ptr noundef %90, ptr noundef %8, ptr noundef %9)
  %92 = icmp ne i32 %91, 0
  br i1 %92, label %93, label %101

93:                                               ; preds = %85
  %94 = load ptr, ptr %3, align 8, !tbaa !4
  %95 = getelementptr inbounds nuw %struct.AVFilterContext, ptr %94, i32 0, i32 7
  %96 = load ptr, ptr %95, align 8, !tbaa !43
  %97 = getelementptr inbounds ptr, ptr %96, i64 0
  %98 = load ptr, ptr %97, align 8, !tbaa !44
  %99 = load i32, ptr %8, align 4, !tbaa !37
  %100 = load i64, ptr %9, align 8, !tbaa !50
  call void @ff_outlink_set_status(ptr noundef %98, i32 noundef %99, i64 noundef %100)
  store i32 0, ptr %2, align 4
  store i32 1, ptr %12, align 4
  br label %116

101:                                              ; preds = %85
  %102 = load ptr, ptr %3, align 8, !tbaa !4
  %103 = getelementptr inbounds nuw %struct.AVFilterContext, ptr %102, i32 0, i32 7
  %104 = load ptr, ptr %103, align 8, !tbaa !43
  %105 = getelementptr inbounds ptr, ptr %104, i64 0
  %106 = load ptr, ptr %105, align 8, !tbaa !44
  %107 = call i32 @ff_outlink_frame_wanted(ptr noundef %106)
  %108 = icmp ne i32 %107, 0
  br i1 %108, label %109, label %115

109:                                              ; preds = %101
  %110 = load ptr, ptr %3, align 8, !tbaa !4
  %111 = getelementptr inbounds nuw %struct.AVFilterContext, ptr %110, i32 0, i32 4
  %112 = load ptr, ptr %111, align 8, !tbaa !47
  %113 = getelementptr inbounds ptr, ptr %112, i64 0
  %114 = load ptr, ptr %113, align 8, !tbaa !44
  call void @ff_inlink_request_frame(ptr noundef %114)
  br label %115

115:                                              ; preds = %109, %101
  store i32 0, ptr %2, align 4
  store i32 1, ptr %12, align 4
  br label %116

116:                                              ; preds = %115, %93, %83, %70, %51
  call void @llvm.lifetime.end.p0(i64 8, ptr %9) #11
  call void @llvm.lifetime.end.p0(i64 4, ptr %8) #11
  call void @llvm.lifetime.end.p0(i64 4, ptr %7) #11
  call void @llvm.lifetime.end.p0(i64 8, ptr %6) #11
  call void @llvm.lifetime.end.p0(i64 8, ptr %5) #11
  br label %121

117:                                              ; preds = %1
  %118 = load ptr, ptr %4, align 8, !tbaa !22
  %119 = getelementptr inbounds nuw %struct.PreMultiplyContext, ptr %118, i32 0, i32 12
  %120 = call i32 @ff_framesync_activate(ptr noundef %119)
  store i32 %120, ptr %2, align 4
  store i32 1, ptr %12, align 4
  br label %121

121:                                              ; preds = %117, %116
  call void @llvm.lifetime.end.p0(i64 8, ptr %4) #11
  %122 = load i32, ptr %2, align 4
  ret i32 %122
}