; Function Attrs: nounwind uwtable
define internal i32 @activate(ptr noundef %0) #1 {
  %2 = alloca ptr, align 8
  %3 = alloca ptr, align 8
  %4 = alloca i32, align 4
  %5 = alloca i64, align 8
  %6 = getelementptr inbounds nuw i8, ptr %0, i64 72
  %7 = load ptr, ptr %6, align 8, !tbaa !4
  %8 = getelementptr inbounds nuw i8, ptr %7, i64 68
  %9 = load i32, ptr %8, align 4, !tbaa !34
  %.not = icmp eq i32 %9, 0
  br i1 %.not, label %55, label %10

10:                                               ; preds = %1
  call void @llvm.lifetime.start.p0(i64 8, ptr nonnull %2) #11
  store ptr null, ptr %2, align 8, !tbaa !35
  call void @llvm.lifetime.start.p0(i64 8, ptr nonnull %3) #11
  call void @llvm.lifetime.start.p0(i64 4, ptr nonnull %4) #11
  call void @llvm.lifetime.start.p0(i64 8, ptr nonnull %5) #11
  %11 = getelementptr inbounds nuw i8, ptr %0, i64 56
  %12 = load ptr, ptr %11, align 8, !tbaa !37
  %13 = load ptr, ptr %12, align 8, !tbaa !38
  %14 = tail call i32 @ff_outlink_get_status(ptr noundef %13) #11
  %.not29 = icmp eq i32 %14, 0
  br i1 %.not29, label %.critedge, label %.preheader

.preheader:                                       ; preds = %10
  %15 = getelementptr inbounds nuw i8, ptr %0, i64 40
  %16 = load i32, ptr %15, align 8, !tbaa !40
  %.not33 = icmp eq i32 %16, 0
  br i1 %.not33, label %.loopexit, label %.lr.ph

.lr.ph:                                           ; preds = %.preheader
  %17 = getelementptr inbounds nuw i8, ptr %0, i64 32
  br label %18

18:                                               ; preds = %.lr.ph, %18
  %indvars.iv = phi i64 [ 0, %.lr.ph ], [ %indvars.iv.next, %18 ]
  %19 = load ptr, ptr %17, align 8, !tbaa !41
  %20 = getelementptr inbounds nuw ptr, ptr %19, i64 %indvars.iv
  %21 = load ptr, ptr %20, align 8, !tbaa !38
  tail call void @ff_inlink_set_status(ptr noundef %21, i32 noundef %14) #11
  %indvars.iv.next = add nuw nsw i64 %indvars.iv, 1
  %22 = load i32, ptr %15, align 8, !tbaa !40
  %23 = zext i32 %22 to i64
  %24 = icmp samesign ult i64 %indvars.iv.next, %23
  br i1 %24, label %18, label %.loopexit, !llvm.loop !42

.critedge:                                        ; preds = %10
  %25 = getelementptr inbounds nuw i8, ptr %0, i64 32
  %26 = load ptr, ptr %25, align 8, !tbaa !41
  %27 = load ptr, ptr %26, align 8, !tbaa !38
  %28 = call i32 @ff_inlink_consume_frame(ptr noundef %27, ptr noundef nonnull %2) #11
  %29 = icmp sgt i32 %28, 0
  br i1 %29, label %30, label %39

30:                                               ; preds = %.critedge
  %31 = load ptr, ptr %2, align 8, !tbaa !35
  %32 = call fastcc i32 @filter_frame(ptr noundef nonnull %0, ptr noundef %3, ptr noundef %31, ptr noundef %31)
  call void @av_frame_free(ptr noundef nonnull %2) #11
  %33 = icmp slt i32 %32, 0
  br i1 %33, label %.loopexit, label %34

34:                                               ; preds = %30
  %35 = load ptr, ptr %11, align 8, !tbaa !37
  %36 = load ptr, ptr %35, align 8, !tbaa !38
  %37 = load ptr, ptr %3, align 8, !tbaa !35
  %38 = call i32 @ff_filter_frame(ptr noundef %36, ptr noundef %37) #11
  br label %39

39:                                               ; preds = %34, %.critedge
  %.025 = phi i32 [ %38, %34 ], [ %28, %.critedge ]
  %40 = icmp slt i32 %.025, 0
  br i1 %40, label %.loopexit, label %41

41:                                               ; preds = %39
  %42 = load ptr, ptr %25, align 8, !tbaa !41
  %43 = load ptr, ptr %42, align 8, !tbaa !38
  %44 = call i32 @ff_inlink_acknowledge_status(ptr noundef %43, ptr noundef nonnull %4, ptr noundef nonnull %5) #11
  %.not30 = icmp eq i32 %44, 0
  %45 = load ptr, ptr %11, align 8, !tbaa !37
  %46 = load ptr, ptr %45, align 8, !tbaa !38
  br i1 %.not30, label %50, label %47

47:                                               ; preds = %41
  %48 = load i32, ptr %4, align 4, !tbaa !44
  %49 = load i64, ptr %5, align 8, !tbaa !45
  call void @ff_avfilter_link_set_in_status(ptr noundef %46, i32 noundef %48, i64 noundef %49) #11
  br label %.loopexit

50:                                               ; preds = %41
  %51 = call i32 @ff_outlink_frame_wanted(ptr noundef %46) #11
  %.not31 = icmp eq i32 %51, 0
  br i1 %.not31, label %.loopexit, label %52

52:                                               ; preds = %50
  %53 = load ptr, ptr %25, align 8, !tbaa !41
  %54 = load ptr, ptr %53, align 8, !tbaa !38
  call void @ff_inlink_request_frame(ptr noundef %54) #11
  br label %.loopexit

.loopexit:                                        ; preds = %18, %.preheader, %50, %52, %39, %30, %47
  %.1 = phi i32 [ 0, %47 ], [ %32, %30 ], [ %.025, %39 ], [ 0, %52 ], [ 0, %50 ], [ 0, %.preheader ], [ 0, %18 ]
  call void @llvm.lifetime.end.p0(i64 8, ptr nonnull %5) #11
  call void @llvm.lifetime.end.p0(i64 4, ptr nonnull %4) #11
  call void @llvm.lifetime.end.p0(i64 8, ptr nonnull %3) #11
  call void @llvm.lifetime.end.p0(i64 8, ptr nonnull %2) #11
  br label %58

55:                                               ; preds = %1
  %56 = getelementptr inbounds nuw i8, ptr %7, i64 88
  %57 = tail call i32 @ff_framesync_activate(ptr noundef nonnull %56) #11
  br label %58

58:                                               ; preds = %55, %.loopexit
  %.2 = phi i32 [ %.1, %.loopexit ], [ %57, %55 ]
  ret i32 %.2
}